; Function Attrs: mustprogress uwtable
define dso_local void @_ZN4onnx16TensorAnnotationC2EPN6google8protobuf5ArenaE(ptr noundef nonnull align 8 dereferenceable(56) initializes((0, 48)) %0, ptr noundef %1) unnamed_addr #3 align 2 personality ptr @__gxx_personality_v0 {
  %3 = getelementptr inbounds nuw i8, ptr %0, i64 8
  store ptr %1, ptr %3, align 8, !tbaa !4
  store ptr getelementptr inbounds nuw inrange(-16, 160) (i8, ptr @_ZTVN4onnx16TensorAnnotationE, i64 16), ptr %0, align 8, !tbaa !9
  %4 = getelementptr inbounds nuw i8, ptr %0, i64 16
  store i32 0, ptr %4, align 8
  %5 = getelementptr inbounds nuw i8, ptr %0, i64 20
  store i32 0, ptr %5, align 4, !tbaa !41
  %6 = getelementptr inbounds nuw i8, ptr %0, i64 24
  store ptr %1, ptr %6, align 8, !tbaa !70
  %7 = getelementptr inbounds nuw i8, ptr %0, i64 32
  tail call void @llvm.memset.p0.i64(ptr noundef nonnull align 8 dereferenceable(16) %7, i8 0, i64 16, i1 false)
  %8 = load atomic i32, ptr @scc_info_TensorAnnotation_onnx_2eproto acquire, align 8
  %.not.i.i = icmp eq i32 %8, 0
  br i1 %.not.i.i, label %10, label %9, !prof !11

9:                                                ; preds = %2
  invoke void @_ZN6google8protobuf8internal11InitSCCImplEPNS1_11SCCInfoBaseE(ptr noundef nonnull @scc_info_TensorAnnotation_onnx_2eproto)
          to label %10 unwind label %12

10:                                               ; preds = %2, %9
  %11 = getelementptr inbounds nuw i8, ptr %0, i64 48
  store ptr @_ZN6google8protobuf8internal26fixed_address_empty_stringB5cxx11E, ptr %11, align 8, !tbaa !12
  ret void

12:                                               ; preds = %9
  %13 = landingpad { ptr, i32 }
          cleanup
  tail call void @_ZN6google8protobuf16RepeatedPtrFieldIN4onnx22StringStringEntryProtoEED2Ev(ptr noundef nonnull align 8 dereferenceable(24) %6) #23
  resume { ptr, i32 } %13
}